; ModuleID = '10/1205.c'
source_filename = "10/1205.c"
target datalayout = "e-m:e-p270:32:32-p271:32:32-p272:64:64-i64:64-f80:128-n8:16:32:64-S128"
target triple = "x86_64-pc-linux-gnu"

@a = dso_local global [26 x i32] zeroinitializer, align 16
@b = dso_local global [26 x i32] zeroinitializer, align 16
@max = dso_local global i32 0, align 4
@k = common dso_local global i32 0, align 4
@.str = private unnamed_addr constant [3 x i8] c"%d\00", align 1

; Function Attrs: noinline nounwind uwtable
define dso_local void @num(i32 %0, i32 %1) #0 {
  %3 = alloca i32, align 4
  %4 = alloca i32, align 4
  %5 = alloca i32, align 4
  %6 = alloca i32, align 4
  %7 = alloca i32, align 4
  store i32 %0, i32* %3, align 4
  store i32 %1, i32* %4, align 4
  store i32 0, i32* %6, align 4
  %8 = load i32, i32* %3, align 4
  %9 = load i32, i32* @k, align 4
  %10 = icmp eq i32 %8, %9
  br i1 %10, label %11, label %36

11:                                               ; preds = %2
  store i32 0, i32* %5, align 4
  br label %12

12:                                               ; preds = %26, %11
  %13 = load i32, i32* %5, align 4
  %14 = load i32, i32* @k, align 4
  %15 = icmp slt i32 %13, %14
  br i1 %15, label %16, label %29

16:                                               ; preds = %12
  %17 = load i32, i32* %5, align 4
  %18 = sext i32 %17 to i64
  %19 = getelementptr inbounds [26 x i32], [26 x i32]* @b, i64 0, i64 %18
  %20 = load i32, i32* %19, align 4
  %21 = icmp eq i32 %20, 1
  br i1 %21, label %22, label %25

22:                                               ; preds = %16
  %23 = load i32, i32* %6, align 4
  %24 = add nsw i32 %23, 1
  store i32 %24, i32* %6, align 4
  br label %25

25:                                               ; preds = %22, %16
  br label %26

26:                                               ; preds = %25
  %27 = load i32, i32* %5, align 4
  %28 = add nsw i32 %27, 1
  store i32 %28, i32* %5, align 4
  br label %12

29:                                               ; preds = %12
  %30 = load i32, i32* @max, align 4
  %31 = load i32, i32* %6, align 4
  %32 = icmp slt i32 %30, %31
  br i1 %32, label %33, label %35

33:                                               ; preds = %29
  %34 = load i32, i32* %6, align 4
  store i32 %34, i32* @max, align 4
  br label %35

35:                                               ; preds = %33, %29
  br label %73

36:                                               ; preds = %2
  %37 = load i32, i32* %4, align 4
  %38 = load i32, i32* %3, align 4
  %39 = sext i32 %38 to i64
  %40 = getelementptr inbounds [26 x i32], [26 x i32]* @a, i64 0, i64 %39
  %41 = load i32, i32* %40, align 4
  %42 = icmp slt i32 %37, %41
  br i1 %42, label %43, label %49

43:                                               ; preds = %36
  %44 = load i32, i32* %3, align 4
  %45 = add nsw i32 %44, 1
  store i32 %45, i32* %3, align 4
  %46 = load i32, i32* %4, align 4
  call void @num(i32 %45, i32 %46)
  %47 = load i32, i32* %3, align 4
  %48 = add nsw i32 %47, -1
  store i32 %48, i32* %3, align 4
  br label %72

49:                                               ; preds = %36
  %50 = load i32, i32* %3, align 4
  %51 = add nsw i32 %50, 1
  store i32 %51, i32* %3, align 4
  %52 = load i32, i32* %4, align 4
  call void @num(i32 %51, i32 %52)
  %53 = load i32, i32* %3, align 4
  %54 = add nsw i32 %53, -1
  store i32 %54, i32* %3, align 4
  %55 = load i32, i32* %3, align 4
  %56 = sext i32 %55 to i64
  %57 = getelementptr inbounds [26 x i32], [26 x i32]* @b, i64 0, i64 %56
  store i32 1, i32* %57, align 4
  %58 = load i32, i32* %4, align 4
  store i32 %58, i32* %7, align 4
  %59 = load i32, i32* %3, align 4
  %60 = sext i32 %59 to i64
  %61 = getelementptr inbounds [26 x i32], [26 x i32]* @a, i64 0, i64 %60
  %62 = load i32, i32* %61, align 4
  store i32 %62, i32* %4, align 4
  %63 = load i32, i32* %3, align 4
  %64 = add nsw i32 %63, 1
  store i32 %64, i32* %3, align 4
  %65 = load i32, i32* %4, align 4
  call void @num(i32 %64, i32 %65)
  %66 = load i32, i32* %3, align 4
  %67 = add nsw i32 %66, -1
  store i32 %67, i32* %3, align 4
  %68 = load i32, i32* %3, align 4
  %69 = sext i32 %68 to i64
  %70 = getelementptr inbounds [26 x i32], [26 x i32]* @b, i64 0, i64 %69
  store i32 0, i32* %70, align 4
  %71 = load i32, i32* %7, align 4
  store i32 %71, i32* %4, align 4
  br label %72

72:                                               ; preds = %49, %43
  br label %73

73:                                               ; preds = %72, %35
  ret void
}

; Function Attrs: noinline nounwind uwtable
define dso_local void @main() #0 {
  %1 = alloca i32, align 4
  %2 = call i32 (i8*, ...) @__isoc99_scanf(i8* getelementptr inbounds ([3 x i8], [3 x i8]* @.str, i64 0, i64 0), i32* @k)
  store i32 0, i32* %1, align 4
  br label %3

3:                                                ; preds = %12, %0
  %4 = load i32, i32* %1, align 4
  %5 = load i32, i32* @k, align 4
  %6 = icmp slt i32 %4, %5
  br i1 %6, label %7, label %15

7:                                                ; preds = %3
  %8 = load i32, i32* %1, align 4
  %9 = sext i32 %8 to i64
  %10 = getelementptr inbounds [26 x i32], [26 x i32]* @a, i64 0, i64 %9
  %11 = call i32 (i8*, ...) @__isoc99_scanf(i8* getelementptr inbounds ([3 x i8], [3 x i8]* @.str, i64 0, i64 0), i32* %10)
  br label %12

12:                                               ; preds = %7
  %13 = load i32, i32* %1, align 4
  %14 = add nsw i32 %13, 1
  store i32 %14, i32* %1, align 4
  br label %3

15:                                               ; preds = %3
  call void @num(i32 0, i32 30000)
  %16 = load i32, i32* @max, align 4
  %17 = call i32 (i8*, ...) @printf(i8* getelementptr inbounds ([3 x i8], [3 x i8]* @.str, i64 0, i64 0), i32 %16)
  ret void
}

declare dso_local i32 @__isoc99_scanf(i8*, ...) #1

declare dso_local i32 @printf(i8*, ...) #1


!llvm.module.flags = !{!0}
!llvm.ident = !{!1}

!0 = !{i32 1, !"wchar_size", i32 4}
!1 = !{!"clang version 10.0.0-4ubuntu1 "}
